; ModuleID = '36/610.c'
source_filename = "36/610.c"
target datalayout = "e-m:e-p270:32:32-p271:32:32-p272:64:64-i64:64-f80:128-n8:16:32:64-S128"
target triple = "x86_64-pc-linux-gnu"

@.str = private unnamed_addr constant [3 x i8] c"%s\00", align 1
@str = common dso_local global [1000 x i8] zeroinitializer, align 16
@num = common dso_local global [128 x i32] zeroinitializer, align 16
@.str.1 = private unnamed_addr constant [5 x i8] c"YES\0A\00", align 1
@.str.2 = private unnamed_addr constant [4 x i8] c"NO\0A\00", align 1

; Function Attrs: noinline nounwind uwtable
define dso_local i32 @main() #0 {
  %1 = alloca i32, align 4
  %2 = alloca i32, align 4
  %3 = alloca i32, align 4
  store i32 0, i32* %1, align 4
  %4 = call i32 (i8*, ...) @__isoc99_scanf(i8* getelementptr inbounds ([3 x i8], [3 x i8]* @.str, i64 0, i64 0), i8* getelementptr inbounds ([1000 x i8], [1000 x i8]* @str, i64 0, i64 0))
  %5 = call i64 @strlen(i8* getelementptr inbounds ([1000 x i8], [1000 x i8]* @str, i64 0, i64 0)) #3
  %6 = trunc i64 %5 to i32
  store i32 %6, i32* %3, align 4
  store i32 0, i32* %2, align 4
  br label %7

7:                                                ; preds = %20, %0
  %8 = load i32, i32* %2, align 4
  %9 = load i32, i32* %3, align 4
  %10 = icmp slt i32 %8, %9
  br i1 %10, label %11, label %23

11:                                               ; preds = %7
  %12 = load i32, i32* %2, align 4
  %13 = sext i32 %12 to i64
  %14 = getelementptr inbounds [1000 x i8], [1000 x i8]* @str, i64 0, i64 %13
  %15 = load i8, i8* %14, align 1
  %16 = sext i8 %15 to i64
  %17 = getelementptr inbounds [128 x i32], [128 x i32]* @num, i64 0, i64 %16
  %18 = load i32, i32* %17, align 4
  %19 = add nsw i32 %18, 1
  store i32 %19, i32* %17, align 4
  br label %20

20:                                               ; preds = %11
  %21 = load i32, i32* %2, align 4
  %22 = add nsw i32 %21, 1
  store i32 %22, i32* %2, align 4
  br label %7

23:                                               ; preds = %7
  %24 = call i32 (i8*, ...) @__isoc99_scanf(i8* getelementptr inbounds ([3 x i8], [3 x i8]* @.str, i64 0, i64 0), i8* getelementptr inbounds ([1000 x i8], [1000 x i8]* @str, i64 0, i64 0))
  %25 = call i64 @strlen(i8* getelementptr inbounds ([1000 x i8], [1000 x i8]* @str, i64 0, i64 0)) #3
  %26 = trunc i64 %25 to i32
  store i32 %26, i32* %3, align 4
  store i32 0, i32* %2, align 4
  br label %27

27:                                               ; preds = %40, %23
  %28 = load i32, i32* %2, align 4
  %29 = load i32, i32* %3, align 4
  %30 = icmp slt i32 %28, %29
  br i1 %30, label %31, label %43

31:                                               ; preds = %27
  %32 = load i32, i32* %2, align 4
  %33 = sext i32 %32 to i64
  %34 = getelementptr inbounds [1000 x i8], [1000 x i8]* @str, i64 0, i64 %33
  %35 = load i8, i8* %34, align 1
  %36 = sext i8 %35 to i64
  %37 = getelementptr inbounds [128 x i32], [128 x i32]* @num, i64 0, i64 %36
  %38 = load i32, i32* %37, align 4
  %39 = add nsw i32 %38, -1
  store i32 %39, i32* %37, align 4
  br label %40

40:                                               ; preds = %31
  %41 = load i32, i32* %2, align 4
  %42 = add nsw i32 %41, 1
  store i32 %42, i32* %2, align 4
  br label %27

43:                                               ; preds = %27
  store i32 0, i32* %2, align 4
  br label %44

44:                                               ; preds = %55, %43
  %45 = load i32, i32* %2, align 4
  %46 = icmp slt i32 %45, 128
  br i1 %46, label %47, label %58

47:                                               ; preds = %44
  %48 = load i32, i32* %2, align 4
  %49 = sext i32 %48 to i64
  %50 = getelementptr inbounds [128 x i32], [128 x i32]* @num, i64 0, i64 %49
  %51 = load i32, i32* %50, align 4
  %52 = icmp ne i32 %51, 0
  br i1 %52, label %53, label %54

53:                                               ; preds = %47
  br label %58

54:                                               ; preds = %47
  br label %55

55:                                               ; preds = %54
  %56 = load i32, i32* %2, align 4
  %57 = add nsw i32 %56, 1
  store i32 %57, i32* %2, align 4
  br label %44

58:                                               ; preds = %53, %44
  %59 = load i32, i32* %2, align 4
  %60 = icmp eq i32 %59, 128
  br i1 %60, label %61, label %63

61:                                               ; preds = %58
  %62 = call i32 (i8*, ...) @printf(i8* getelementptr inbounds ([5 x i8], [5 x i8]* @.str.1, i64 0, i64 0))
  br label %65

63:                                               ; preds = %58
  %64 = call i32 (i8*, ...) @printf(i8* getelementptr inbounds ([4 x i8], [4 x i8]* @.str.2, i64 0, i64 0))
  br label %65

65:                                               ; preds = %63, %61
  ret i32 0
}

declare dso_local i32 @__isoc99_scanf(i8*, ...) #1

; Function Attrs: nounwind readonly
declare dso_local i64 @strlen(i8*) #2

declare dso_local i32 @printf(i8*, ...) #1


!llvm.module.flags = !{!0}
!llvm.ident = !{!1}

!0 = !{i32 1, !"wchar_size", i32 4}
!1 = !{!"clang version 10.0.0-4ubuntu1 "}
